; Function Attrs: nounwind uwtable
define dso_local zeroext i1 @isAnyTempNamespace(i32 noundef %0) local_unnamed_addr #0 {
  %2 = tail call ptr @get_namespace_name(i32 noundef %0) #19
  %.not = icmp eq ptr %2, null
  br i1 %.not, label %11, label %3

3:                                                ; preds = %1
  %4 = tail call i32 @strncmp(ptr noundef nonnull dereferenceable(1) %2, ptr noundef nonnull dereferenceable(9) @.str.25, i64 noundef 8) #20
  %5 = icmp eq i32 %4, 0
  br i1 %5, label %9, label %6

6:                                                ; preds = %3
  %7 = tail call i32 @strncmp(ptr noundef nonnull dereferenceable(1) %2, ptr noundef nonnull dereferenceable(15) @.str.26, i64 noundef 14) #20
  %8 = icmp eq i32 %7, 0
  br label %9

9:                                                ; preds = %6, %3
  %10 = phi i1 [ true, %3 ], [ %8, %6 ]
  tail call void @pfree(ptr noundef nonnull %2) #19
  br label %11

11:                                               ; preds = %1, %9
  %.0 = phi i1 [ %10, %9 ], [ false, %1 ]
  ret i1 %.0
}